
Projeto_Virtus_Cofre.elf:     file format elf32-avr

Sections:
Idx Name          Size      VMA       LMA       File off  Algn
  0 .data         0000000c  00800100  000003ce  00000462  2**0
                  CONTENTS, ALLOC, LOAD, DATA
  1 .text         000003ce  00000000  00000000  00000094  2**1
                  CONTENTS, ALLOC, LOAD, READONLY, CODE
  2 .bss          00000009  0080010c  0080010c  0000046e  2**0
                  ALLOC
  3 .comment      00000030  00000000  00000000  0000046e  2**0
                  CONTENTS, READONLY
  4 .note.gnu.avr.deviceinfo 0000003c  00000000  00000000  000004a0  2**2
                  CONTENTS, READONLY
  5 .debug_aranges 00000038  00000000  00000000  000004dc  2**0
                  CONTENTS, READONLY, DEBUGGING
  6 .debug_info   000007f1  00000000  00000000  00000514  2**0
                  CONTENTS, READONLY, DEBUGGING
  7 .debug_abbrev 00000695  00000000  00000000  00000d05  2**0
                  CONTENTS, READONLY, DEBUGGING
  8 .debug_line   00000442  00000000  00000000  0000139a  2**0
                  CONTENTS, READONLY, DEBUGGING
  9 .debug_frame  000000d8  00000000  00000000  000017dc  2**2
                  CONTENTS, READONLY, DEBUGGING
 10 .debug_str    000003ec  00000000  00000000  000018b4  2**0
                  CONTENTS, READONLY, DEBUGGING
 11 .debug_loc    0000019e  00000000  00000000  00001ca0  2**0
                  CONTENTS, READONLY, DEBUGGING
 12 .debug_ranges 00000028  00000000  00000000  00001e3e  2**0
                  CONTENTS, READONLY, DEBUGGING

Disassembly of section .text:

00000000 <__vectors>:
   0:	0c 94 34 00 	jmp	0x68	; 0x68 <__ctors_end>
   4:	0c 94 51 00 	jmp	0xa2	; 0xa2 <__bad_interrupt>
   8:	0c 94 51 00 	jmp	0xa2	; 0xa2 <__bad_interrupt>
   c:	0c 94 51 00 	jmp	0xa2	; 0xa2 <__bad_interrupt>
  10:	0c 94 51 00 	jmp	0xa2	; 0xa2 <__bad_interrupt>
  14:	0c 94 f4 00 	jmp	0x1e8	; 0x1e8 <__vector_5>
  18:	0c 94 51 00 	jmp	0xa2	; 0xa2 <__bad_interrupt>
  1c:	0c 94 51 00 	jmp	0xa2	; 0xa2 <__bad_interrupt>
  20:	0c 94 51 00 	jmp	0xa2	; 0xa2 <__bad_interrupt>
  24:	0c 94 51 00 	jmp	0xa2	; 0xa2 <__bad_interrupt>
  28:	0c 94 51 00 	jmp	0xa2	; 0xa2 <__bad_interrupt>
  2c:	0c 94 51 00 	jmp	0xa2	; 0xa2 <__bad_interrupt>
  30:	0c 94 51 00 	jmp	0xa2	; 0xa2 <__bad_interrupt>
  34:	0c 94 51 00 	jmp	0xa2	; 0xa2 <__bad_interrupt>
  38:	0c 94 63 00 	jmp	0xc6	; 0xc6 <__vector_14>
  3c:	0c 94 51 00 	jmp	0xa2	; 0xa2 <__bad_interrupt>
  40:	0c 94 51 00 	jmp	0xa2	; 0xa2 <__bad_interrupt>
  44:	0c 94 51 00 	jmp	0xa2	; 0xa2 <__bad_interrupt>
  48:	0c 94 51 00 	jmp	0xa2	; 0xa2 <__bad_interrupt>
  4c:	0c 94 51 00 	jmp	0xa2	; 0xa2 <__bad_interrupt>
  50:	0c 94 51 00 	jmp	0xa2	; 0xa2 <__bad_interrupt>
  54:	0c 94 51 00 	jmp	0xa2	; 0xa2 <__bad_interrupt>
  58:	0c 94 51 00 	jmp	0xa2	; 0xa2 <__bad_interrupt>
  5c:	0c 94 51 00 	jmp	0xa2	; 0xa2 <__bad_interrupt>
  60:	0c 94 51 00 	jmp	0xa2	; 0xa2 <__bad_interrupt>
  64:	0c 94 51 00 	jmp	0xa2	; 0xa2 <__bad_interrupt>

00000068 <__ctors_end>:
  68:	11 24       	eor	r1, r1
  6a:	1f be       	out	0x3f, r1	; 63
  6c:	cf ef       	ldi	r28, 0xFF	; 255
  6e:	d8 e0       	ldi	r29, 0x08	; 8
  70:	de bf       	out	0x3e, r29	; 62
  72:	cd bf       	out	0x3d, r28	; 61

00000074 <__do_copy_data>:
  74:	11 e0       	ldi	r17, 0x01	; 1
  76:	a0 e0       	ldi	r26, 0x00	; 0
  78:	b1 e0       	ldi	r27, 0x01	; 1
  7a:	ee ec       	ldi	r30, 0xCE	; 206
  7c:	f3 e0       	ldi	r31, 0x03	; 3
  7e:	02 c0       	rjmp	.+4      	; 0x84 <__do_copy_data+0x10>
  80:	05 90       	lpm	r0, Z+
  82:	0d 92       	st	X+, r0
  84:	ac 30       	cpi	r26, 0x0C	; 12
  86:	b1 07       	cpc	r27, r17
  88:	d9 f7       	brne	.-10     	; 0x80 <__do_copy_data+0xc>

0000008a <__do_clear_bss>:
  8a:	21 e0       	ldi	r18, 0x01	; 1
  8c:	ac e0       	ldi	r26, 0x0C	; 12
  8e:	b1 e0       	ldi	r27, 0x01	; 1
  90:	01 c0       	rjmp	.+2      	; 0x94 <.do_clear_bss_start>

00000092 <.do_clear_bss_loop>:
  92:	1d 92       	st	X+, r1

00000094 <.do_clear_bss_start>:
  94:	a5 31       	cpi	r26, 0x15	; 21
  96:	b2 07       	cpc	r27, r18
  98:	e1 f7       	brne	.-8      	; 0x92 <.do_clear_bss_loop>
  9a:	0e 94 7c 01 	call	0x2f8	; 0x2f8 <main>
  9e:	0c 94 e5 01 	jmp	0x3ca	; 0x3ca <_exit>

000000a2 <__bad_interrupt>:
  a2:	0c 94 00 00 	jmp	0	; 0x0 <__vectors>

000000a6 <ativa_display>:
 * FUNÇÃO DE ATIVAÇÃO DOS DISPLAYS (MULTIPLEXAÇÃO)
 * ===================================================== */
void ativa_display(uint8_t d)
{
	// Desliga todos os displays
	PORTD &= ~(1 << PD5);
  a6:	5d 98       	cbi	0x0b, 5	; 11
	PORTB &= ~((1 << PB6) | (1 << PB7));
  a8:	95 b1       	in	r25, 0x05	; 5
  aa:	9f 73       	andi	r25, 0x3F	; 63
  ac:	95 b9       	out	0x05, r25	; 5

	// Ativa apenas o display selecionado
	if (d == 0) PORTB |= (1 << PB6);
  ae:	81 11       	cpse	r24, r1
  b0:	02 c0       	rjmp	.+4      	; 0xb6 <ativa_display+0x10>
  b2:	2e 9a       	sbi	0x05, 6	; 5
  b4:	08 95       	ret
	if (d == 1) PORTB |= (1 << PB7);
  b6:	81 30       	cpi	r24, 0x01	; 1
  b8:	11 f4       	brne	.+4      	; 0xbe <ativa_display+0x18>
  ba:	2f 9a       	sbi	0x05, 7	; 5
  bc:	08 95       	ret
	if (d == 2) PORTD |= (1 << PD5);
  be:	82 30       	cpi	r24, 0x02	; 2
  c0:	09 f4       	brne	.+2      	; 0xc4 <ativa_display+0x1e>
  c2:	5d 9a       	sbi	0x0b, 5	; 11
  c4:	08 95       	ret

000000c6 <__vector_14>:
 * INTERRUPÇÃO DO TIMER0 (1 ms)
 * - Multiplexação dos displays
 * - Controle de bips do buzzer
 * ===================================================== */
ISR(TIMER0_COMPA_vect)
{
  c6:	1f 92       	push	r1
  c8:	0f 92       	push	r0
  ca:	0f b6       	in	r0, 0x3f	; 63
  cc:	0f 92       	push	r0
  ce:	11 24       	eor	r1, r1
  d0:	2f 93       	push	r18
  d2:	3f 93       	push	r19
  d4:	4f 93       	push	r20
  d6:	5f 93       	push	r21
  d8:	6f 93       	push	r22
  da:	7f 93       	push	r23
  dc:	8f 93       	push	r24
  de:	9f 93       	push	r25
  e0:	af 93       	push	r26
  e2:	bf 93       	push	r27
  e4:	ef 93       	push	r30
  e6:	ff 93       	push	r31
	// Atualiza segmentos do display atual
	PORTC = digitos[ senha[display_atual] ];
  e8:	e0 91 11 01 	lds	r30, 0x0111	; 0x800111 <display_atual>
  ec:	f0 e0       	ldi	r31, 0x00	; 0
  ee:	ee 5e       	subi	r30, 0xEE	; 238
  f0:	fe 4f       	sbci	r31, 0xFE	; 254
  f2:	e0 81       	ld	r30, Z
  f4:	f0 e0       	ldi	r31, 0x00	; 0
  f6:	ef 5f       	subi	r30, 0xFF	; 255
  f8:	fe 4f       	sbci	r31, 0xFE	; 254
  fa:	80 81       	ld	r24, Z
  fc:	88 b9       	out	0x08, r24	; 8
	ativa_display(display_atual);
  fe:	80 91 11 01 	lds	r24, 0x0111	; 0x800111 <display_atual>
 102:	0e 94 53 00 	call	0xa6	; 0xa6 <ativa_display>

	// Avança para o próximo display
	display_atual++;
 106:	80 91 11 01 	lds	r24, 0x0111	; 0x800111 <display_atual>
 10a:	8f 5f       	subi	r24, 0xFF	; 255
 10c:	80 93 11 01 	sts	0x0111, r24	; 0x800111 <display_atual>
	if (display_atual > 2)
 110:	80 91 11 01 	lds	r24, 0x0111	; 0x800111 <display_atual>
 114:	83 30       	cpi	r24, 0x03	; 3
 116:	10 f0       	brcs	.+4      	; 0x11c <__vector_14+0x56>
		display_atual = 0;
 118:	10 92 11 01 	sts	0x0111, r1	; 0x800111 <display_atual>

	/* -------- CONTROLE DOS BIPS DO BUZZER -------- */
	if (beep_count > 0)
 11c:	80 91 0f 01 	lds	r24, 0x010F	; 0x80010f <beep_count>
 120:	88 23       	and	r24, r24
 122:	09 f4       	brne	.+2      	; 0x126 <__vector_14+0x60>
 124:	49 c0       	rjmp	.+146    	; 0x1b8 <__vector_14+0xf2>
	{
		beep_timer++;
 126:	80 91 0d 01 	lds	r24, 0x010D	; 0x80010d <beep_timer>
 12a:	90 91 0e 01 	lds	r25, 0x010E	; 0x80010e <beep_timer+0x1>
 12e:	01 96       	adiw	r24, 0x01	; 1
 130:	90 93 0e 01 	sts	0x010E, r25	; 0x80010e <beep_timer+0x1>
 134:	80 93 0d 01 	sts	0x010D, r24	; 0x80010d <beep_timer>

		if (buzzer_state == 0)
 138:	80 91 0c 01 	lds	r24, 0x010C	; 0x80010c <__data_end>
 13c:	81 11       	cpse	r24, r1
 13e:	0d c0       	rjmp	.+26     	; 0x15a <__vector_14+0x94>
		{
			// Início do bip
			TCCR1A |= (1 << COM1A1);   // habilita PWM
 140:	e0 e8       	ldi	r30, 0x80	; 128
 142:	f0 e0       	ldi	r31, 0x00	; 0
 144:	80 81       	ld	r24, Z
 146:	80 68       	ori	r24, 0x80	; 128
 148:	80 83       	st	Z, r24
			buzzer_state = 1;
 14a:	81 e0       	ldi	r24, 0x01	; 1
 14c:	80 93 0c 01 	sts	0x010C, r24	; 0x80010c <__data_end>
			beep_timer = 0;
 150:	10 92 0e 01 	sts	0x010E, r1	; 0x80010e <beep_timer+0x1>
 154:	10 92 0d 01 	sts	0x010D, r1	; 0x80010d <beep_timer>
 158:	36 c0       	rjmp	.+108    	; 0x1c6 <__vector_14+0x100>
		}
		else if (buzzer_state == 1 && beep_timer >= 200)
 15a:	80 91 0c 01 	lds	r24, 0x010C	; 0x80010c <__data_end>
 15e:	81 30       	cpi	r24, 0x01	; 1
 160:	a1 f4       	brne	.+40     	; 0x18a <__vector_14+0xc4>
 162:	80 91 0d 01 	lds	r24, 0x010D	; 0x80010d <beep_timer>
 166:	90 91 0e 01 	lds	r25, 0x010E	; 0x80010e <beep_timer+0x1>
 16a:	88 3c       	cpi	r24, 0xC8	; 200
 16c:	91 05       	cpc	r25, r1
 16e:	68 f0       	brcs	.+26     	; 0x18a <__vector_14+0xc4>
		{
			// Fim do bip
			TCCR1A &= ~(1 << COM1A1);  // desabilita PWM
 170:	e0 e8       	ldi	r30, 0x80	; 128
 172:	f0 e0       	ldi	r31, 0x00	; 0
 174:	80 81       	ld	r24, Z
 176:	8f 77       	andi	r24, 0x7F	; 127
 178:	80 83       	st	Z, r24
			buzzer_state = 2;
 17a:	82 e0       	ldi	r24, 0x02	; 2
 17c:	80 93 0c 01 	sts	0x010C, r24	; 0x80010c <__data_end>
			beep_timer = 0;
 180:	10 92 0e 01 	sts	0x010E, r1	; 0x80010e <beep_timer+0x1>
 184:	10 92 0d 01 	sts	0x010D, r1	; 0x80010d <beep_timer>
 188:	1e c0       	rjmp	.+60     	; 0x1c6 <__vector_14+0x100>
		}
		else if (buzzer_state == 2 && beep_timer >= 150)
 18a:	80 91 0c 01 	lds	r24, 0x010C	; 0x80010c <__data_end>
 18e:	82 30       	cpi	r24, 0x02	; 2
 190:	d1 f4       	brne	.+52     	; 0x1c6 <__vector_14+0x100>
 192:	80 91 0d 01 	lds	r24, 0x010D	; 0x80010d <beep_timer>
 196:	90 91 0e 01 	lds	r25, 0x010E	; 0x80010e <beep_timer+0x1>
 19a:	86 39       	cpi	r24, 0x96	; 150
 19c:	91 05       	cpc	r25, r1
 19e:	98 f0       	brcs	.+38     	; 0x1c6 <__vector_14+0x100>
		{
			// Fim da pausa entre bips
			buzzer_state = 0;
 1a0:	10 92 0c 01 	sts	0x010C, r1	; 0x80010c <__data_end>
			beep_timer = 0;
 1a4:	10 92 0e 01 	sts	0x010E, r1	; 0x80010e <beep_timer+0x1>
 1a8:	10 92 0d 01 	sts	0x010D, r1	; 0x80010d <beep_timer>
			beep_count--;
 1ac:	80 91 0f 01 	lds	r24, 0x010F	; 0x80010f <beep_count>
 1b0:	81 50       	subi	r24, 0x01	; 1
 1b2:	80 93 0f 01 	sts	0x010F, r24	; 0x80010f <beep_count>
 1b6:	07 c0       	rjmp	.+14     	; 0x1c6 <__vector_14+0x100>
		}
	}
	else
	{
		// Garante que o buzzer permaneça desligado
		TCCR1A &= ~(1 << COM1A1);
 1b8:	e0 e8       	ldi	r30, 0x80	; 128
 1ba:	f0 e0       	ldi	r31, 0x00	; 0
 1bc:	80 81       	ld	r24, Z
 1be:	8f 77       	andi	r24, 0x7F	; 127
 1c0:	80 83       	st	Z, r24
		buzzer_state = 0;
 1c2:	10 92 0c 01 	sts	0x010C, r1	; 0x80010c <__data_end>
	}
}
 1c6:	ff 91       	pop	r31
 1c8:	ef 91       	pop	r30
 1ca:	bf 91       	pop	r27
 1cc:	af 91       	pop	r26
 1ce:	9f 91       	pop	r25
 1d0:	8f 91       	pop	r24
 1d2:	7f 91       	pop	r23
 1d4:	6f 91       	pop	r22
 1d6:	5f 91       	pop	r21
 1d8:	4f 91       	pop	r20
 1da:	3f 91       	pop	r19
 1dc:	2f 91       	pop	r18
 1de:	0f 90       	pop	r0
 1e0:	0f be       	out	0x3f, r0	; 63
 1e2:	0f 90       	pop	r0
 1e4:	1f 90       	pop	r1
 1e6:	18 95       	reti

000001e8 <__vector_5>:
 * - Leitura dos botões
 * - Incremento da senha
 * - Confirmação da senha
 * ===================================================== */
ISR(PCINT2_vect)
{
 1e8:	1f 92       	push	r1
 1ea:	0f 92       	push	r0
 1ec:	0f b6       	in	r0, 0x3f	; 63
 1ee:	0f 92       	push	r0
 1f0:	11 24       	eor	r1, r1
 1f2:	2f 93       	push	r18
 1f4:	5f 93       	push	r21
 1f6:	6f 93       	push	r22
 1f8:	7f 93       	push	r23
 1fa:	8f 93       	push	r24
 1fc:	9f 93       	push	r25
 1fe:	af 93       	push	r26
 200:	bf 93       	push	r27
 202:	ef 93       	push	r30
 204:	ff 93       	push	r31
	static uint8_t last = 0xFF;
	uint8_t atual = PIND;
 206:	29 b1       	in	r18, 0x09	; 9

	// Incrementa cada dígito da senha
	if (!(atual & (1 << PD1)) && (last & (1 << PD1)))
 208:	21 fd       	sbrc	r18, 1
 20a:	0e c0       	rjmp	.+28     	; 0x228 <__vector_5+0x40>
 20c:	80 91 00 01 	lds	r24, 0x0100	; 0x800100 <__data_start>
 210:	81 ff       	sbrs	r24, 1
 212:	0a c0       	rjmp	.+20     	; 0x228 <__vector_5+0x40>
		senha[0] = (senha[0] + 1) % 10;
 214:	e2 e1       	ldi	r30, 0x12	; 18
 216:	f1 e0       	ldi	r31, 0x01	; 1
 218:	80 81       	ld	r24, Z
 21a:	90 e0       	ldi	r25, 0x00	; 0
 21c:	01 96       	adiw	r24, 0x01	; 1
 21e:	6a e0       	ldi	r22, 0x0A	; 10
 220:	70 e0       	ldi	r23, 0x00	; 0
 222:	0e 94 bd 01 	call	0x37a	; 0x37a <__divmodhi4>
 226:	80 83       	st	Z, r24

	if (!(atual & (1 << PD2)) && (last & (1 << PD2)))
 228:	22 fd       	sbrc	r18, 2
 22a:	0e c0       	rjmp	.+28     	; 0x248 <__vector_5+0x60>
 22c:	80 91 00 01 	lds	r24, 0x0100	; 0x800100 <__data_start>
 230:	82 ff       	sbrs	r24, 2
 232:	0a c0       	rjmp	.+20     	; 0x248 <__vector_5+0x60>
		senha[1] = (senha[1] + 1) % 10;
 234:	e2 e1       	ldi	r30, 0x12	; 18
 236:	f1 e0       	ldi	r31, 0x01	; 1
 238:	81 81       	ldd	r24, Z+1	; 0x01
 23a:	90 e0       	ldi	r25, 0x00	; 0
 23c:	01 96       	adiw	r24, 0x01	; 1
 23e:	6a e0       	ldi	r22, 0x0A	; 10
 240:	70 e0       	ldi	r23, 0x00	; 0
 242:	0e 94 bd 01 	call	0x37a	; 0x37a <__divmodhi4>
 246:	81 83       	std	Z+1, r24	; 0x01

	if (!(atual & (1 << PD3)) && (last & (1 << PD3)))
 248:	23 fd       	sbrc	r18, 3
 24a:	0e c0       	rjmp	.+28     	; 0x268 <__vector_5+0x80>
 24c:	80 91 00 01 	lds	r24, 0x0100	; 0x800100 <__data_start>
 250:	83 ff       	sbrs	r24, 3
 252:	0a c0       	rjmp	.+20     	; 0x268 <__vector_5+0x80>
		senha[2] = (senha[2] + 1) % 10;
 254:	e2 e1       	ldi	r30, 0x12	; 18
 256:	f1 e0       	ldi	r31, 0x01	; 1
 258:	82 81       	ldd	r24, Z+2	; 0x02
 25a:	90 e0       	ldi	r25, 0x00	; 0
 25c:	01 96       	adiw	r24, 0x01	; 1
 25e:	6a e0       	ldi	r22, 0x0A	; 10
 260:	70 e0       	ldi	r23, 0x00	; 0
 262:	0e 94 bd 01 	call	0x37a	; 0x37a <__divmodhi4>
 266:	82 83       	std	Z+2, r24	; 0x02

	// Botão de confirmação
	if (!(atual & (1 << PD4)) && (last & (1 << PD4)))
 268:	24 fd       	sbrc	r18, 4
 26a:	35 c0       	rjmp	.+106    	; 0x2d6 <__vector_5+0xee>
 26c:	80 91 00 01 	lds	r24, 0x0100	; 0x800100 <__data_start>
 270:	84 ff       	sbrs	r24, 4
 272:	31 c0       	rjmp	.+98     	; 0x2d6 <__vector_5+0xee>
	{
		// SENHA CORRETA
		if (senha[0] == senha_correta[0] &&
 274:	80 91 12 01 	lds	r24, 0x0112	; 0x800112 <senha>
 278:	81 30       	cpi	r24, 0x01	; 1
 27a:	01 f5       	brne	.+64     	; 0x2bc <__vector_5+0xd4>
		senha[1] == senha_correta[1] &&
 27c:	80 91 13 01 	lds	r24, 0x0113	; 0x800113 <senha+0x1>

	// Botão de confirmação
	if (!(atual & (1 << PD4)) && (last & (1 << PD4)))
	{
		// SENHA CORRETA
		if (senha[0] == senha_correta[0] &&
 280:	82 30       	cpi	r24, 0x02	; 2
 282:	e1 f4       	brne	.+56     	; 0x2bc <__vector_5+0xd4>
		senha[1] == senha_correta[1] &&
		senha[2] == senha_correta[2])
 284:	80 91 14 01 	lds	r24, 0x0114	; 0x800114 <senha+0x2>
	// Botão de confirmação
	if (!(atual & (1 << PD4)) && (last & (1 << PD4)))
	{
		// SENHA CORRETA
		if (senha[0] == senha_correta[0] &&
		senha[1] == senha_correta[1] &&
 288:	83 30       	cpi	r24, 0x03	; 3
 28a:	c1 f4       	brne	.+48     	; 0x2bc <__vector_5+0xd4>
		senha[2] == senha_correta[2])
		{
			cofre_aberto ^= 1;
 28c:	90 91 10 01 	lds	r25, 0x0110	; 0x800110 <cofre_aberto>
 290:	81 e0       	ldi	r24, 0x01	; 1
 292:	89 27       	eor	r24, r25
 294:	80 93 10 01 	sts	0x0110, r24	; 0x800110 <cofre_aberto>

			beep_timer = 0;
 298:	10 92 0e 01 	sts	0x010E, r1	; 0x80010e <beep_timer+0x1>
 29c:	10 92 0d 01 	sts	0x010D, r1	; 0x80010d <beep_timer>
			buzzer_state = 0;
 2a0:	10 92 0c 01 	sts	0x010C, r1	; 0x80010c <__data_end>

			if (cofre_aberto)
 2a4:	80 91 10 01 	lds	r24, 0x0110	; 0x800110 <cofre_aberto>
 2a8:	88 23       	and	r24, r24
 2aa:	21 f0       	breq	.+8      	; 0x2b4 <__vector_5+0xcc>
			beep_count = 2;   // abriu
 2ac:	82 e0       	ldi	r24, 0x02	; 2
 2ae:	80 93 0f 01 	sts	0x010F, r24	; 0x80010f <beep_count>
 2b2:	11 c0       	rjmp	.+34     	; 0x2d6 <__vector_5+0xee>
			else
			beep_count = 1;   // fechou
 2b4:	81 e0       	ldi	r24, 0x01	; 1
 2b6:	80 93 0f 01 	sts	0x010F, r24	; 0x80010f <beep_count>
 2ba:	0d c0       	rjmp	.+26     	; 0x2d6 <__vector_5+0xee>
		}
		// SENHA ERRADA E COFRE FECHADO
		else if (!cofre_aberto)
 2bc:	80 91 10 01 	lds	r24, 0x0110	; 0x800110 <cofre_aberto>
 2c0:	81 11       	cpse	r24, r1
 2c2:	09 c0       	rjmp	.+18     	; 0x2d6 <__vector_5+0xee>
		{
			beep_timer = 0;
 2c4:	10 92 0e 01 	sts	0x010E, r1	; 0x80010e <beep_timer+0x1>
 2c8:	10 92 0d 01 	sts	0x010D, r1	; 0x80010d <beep_timer>
			buzzer_state = 0;
 2cc:	10 92 0c 01 	sts	0x010C, r1	; 0x80010c <__data_end>
			beep_count = 10;  // alarme de erro
 2d0:	8a e0       	ldi	r24, 0x0A	; 10
 2d2:	80 93 0f 01 	sts	0x010F, r24	; 0x80010f <beep_count>
		}
	}


	last = atual;
 2d6:	20 93 00 01 	sts	0x0100, r18	; 0x800100 <__data_start>
}
 2da:	ff 91       	pop	r31
 2dc:	ef 91       	pop	r30
 2de:	bf 91       	pop	r27
 2e0:	af 91       	pop	r26
 2e2:	9f 91       	pop	r25
 2e4:	8f 91       	pop	r24
 2e6:	7f 91       	pop	r23
 2e8:	6f 91       	pop	r22
 2ea:	5f 91       	pop	r21
 2ec:	2f 91       	pop	r18
 2ee:	0f 90       	pop	r0
 2f0:	0f be       	out	0x3f, r0	; 63
 2f2:	0f 90       	pop	r0
 2f4:	1f 90       	pop	r1
 2f6:	18 95       	reti

000002f8 <main>:
int main(void)
{
	/* -------- CONFIGURAÇÃO DE I/O -------- */

	// Segmentos do display
	DDRC |= 0b01111111;
 2f8:	87 b1       	in	r24, 0x07	; 7
 2fa:	8f 67       	ori	r24, 0x7F	; 127
 2fc:	87 b9       	out	0x07, r24	; 7

	// Controle dos displays (transistores)
	DDRD |= (1 << PD5);
 2fe:	55 9a       	sbi	0x0a, 5	; 10
	DDRB |= (1 << PB6) | (1 << PB7);
 300:	84 b1       	in	r24, 0x04	; 4
 302:	80 6c       	ori	r24, 0xC0	; 192
 304:	84 b9       	out	0x04, r24	; 4

	// Botões com pull-up
	DDRD &= ~((1 << PD1)|(1 << PD2)|(1 << PD3)|(1 << PD4));
 306:	8a b1       	in	r24, 0x0a	; 10
 308:	81 7e       	andi	r24, 0xE1	; 225
 30a:	8a b9       	out	0x0a, r24	; 10
	PORTD |=  (1 << PD1)|(1 << PD2)|(1 << PD3)|(1 << PD4);
 30c:	8b b1       	in	r24, 0x0b	; 11
 30e:	8e 61       	ori	r24, 0x1E	; 30
 310:	8b b9       	out	0x0b, r24	; 11

	// LED RGB
	DDRB |= (1 << PB3) | (1 << PB4);
 312:	84 b1       	in	r24, 0x04	; 4
 314:	88 61       	ori	r24, 0x18	; 24
 316:	84 b9       	out	0x04, r24	; 4

	// Buzzer (PWM - OC1A)
	DDRB |= (1 << PB1);
 318:	21 9a       	sbi	0x04, 1	; 4

	// Estado inicial: cofre fechado (vermelho)
	PORTB |= (1 << PB4);
 31a:	2c 9a       	sbi	0x05, 4	; 5
	PORTB &= ~(1 << PB3);
 31c:	2b 98       	cbi	0x05, 3	; 5

	/* -------- TIMER0 (1 ms) -------- */
	TCCR0A = (1 << WGM01);
 31e:	82 e0       	ldi	r24, 0x02	; 2
 320:	84 bd       	out	0x24, r24	; 36
	OCR0A  = 249;
 322:	99 ef       	ldi	r25, 0xF9	; 249
 324:	97 bd       	out	0x27, r25	; 39
	TIMSK0 = (1 << OCIE0A);
 326:	80 93 6e 00 	sts	0x006E, r24	; 0x80006e <__DATA_REGION_ORIGIN__+0xe>
	TCCR0B = (1 << CS01) | (1 << CS00);
 32a:	93 e0       	ldi	r25, 0x03	; 3
 32c:	95 bd       	out	0x25, r25	; 37

	/* -------- TIMER1 (PWM do buzzer ~2 kHz) -------- */
	TCCR1A = (1 << WGM11);
 32e:	80 93 80 00 	sts	0x0080, r24	; 0x800080 <__DATA_REGION_ORIGIN__+0x20>
	TCCR1B = (1 << WGM13) | (1 << WGM12) | (1 << CS11);
 332:	8a e1       	ldi	r24, 0x1A	; 26
 334:	80 93 81 00 	sts	0x0081, r24	; 0x800081 <__DATA_REGION_ORIGIN__+0x21>
	ICR1   = 1499;
 338:	8b ed       	ldi	r24, 0xDB	; 219
 33a:	95 e0       	ldi	r25, 0x05	; 5
 33c:	90 93 87 00 	sts	0x0087, r25	; 0x800087 <__DATA_REGION_ORIGIN__+0x27>
 340:	80 93 86 00 	sts	0x0086, r24	; 0x800086 <__DATA_REGION_ORIGIN__+0x26>
	OCR1A  = 750;
 344:	8e ee       	ldi	r24, 0xEE	; 238
 346:	92 e0       	ldi	r25, 0x02	; 2
 348:	90 93 89 00 	sts	0x0089, r25	; 0x800089 <__DATA_REGION_ORIGIN__+0x29>
 34c:	80 93 88 00 	sts	0x0088, r24	; 0x800088 <__DATA_REGION_ORIGIN__+0x28>

	/* -------- INTERRUPÇÕES DE PINO -------- */
	PCICR  |= (1 << PCIE2);
 350:	e8 e6       	ldi	r30, 0x68	; 104
 352:	f0 e0       	ldi	r31, 0x00	; 0
 354:	80 81       	ld	r24, Z
 356:	84 60       	ori	r24, 0x04	; 4
 358:	80 83       	st	Z, r24
	PCMSK2 |= (1 << PD1)|(1 << PD2)|(1 << PD3)|(1 << PD4);
 35a:	ed e6       	ldi	r30, 0x6D	; 109
 35c:	f0 e0       	ldi	r31, 0x00	; 0
 35e:	80 81       	ld	r24, Z
 360:	8e 61       	ori	r24, 0x1E	; 30
 362:	80 83       	st	Z, r24

	sei();
 364:	78 94       	sei

	/* -------- LOOP PRINCIPAL -------- */
	while (1)
	{
		// Atualiza LED RGB conforme estado do cofre
		if (cofre_aberto)
 366:	80 91 10 01 	lds	r24, 0x0110	; 0x800110 <cofre_aberto>
 36a:	88 23       	and	r24, r24
 36c:	19 f0       	breq	.+6      	; 0x374 <main+0x7c>
		{
			PORTB |= (1 << PB3);   // verde ON
 36e:	2b 9a       	sbi	0x05, 3	; 5
			PORTB &= ~(1 << PB4);  // vermelho OFF
 370:	2c 98       	cbi	0x05, 4	; 5
 372:	f9 cf       	rjmp	.-14     	; 0x366 <main+0x6e>
		}
		else
		{
			PORTB |= (1 << PB4);   // vermelho ON
 374:	2c 9a       	sbi	0x05, 4	; 5
			PORTB &= ~(1 << PB3);  // verde OFF
 376:	2b 98       	cbi	0x05, 3	; 5
 378:	f6 cf       	rjmp	.-20     	; 0x366 <main+0x6e>

0000037a <__divmodhi4>:
 37a:	97 fb       	bst	r25, 7
 37c:	07 2e       	mov	r0, r23
 37e:	16 f4       	brtc	.+4      	; 0x384 <__divmodhi4+0xa>
 380:	00 94       	com	r0
 382:	07 d0       	rcall	.+14     	; 0x392 <__divmodhi4_neg1>
 384:	77 fd       	sbrc	r23, 7
 386:	09 d0       	rcall	.+18     	; 0x39a <__divmodhi4_neg2>
 388:	0e 94 d1 01 	call	0x3a2	; 0x3a2 <__udivmodhi4>
 38c:	07 fc       	sbrc	r0, 7
 38e:	05 d0       	rcall	.+10     	; 0x39a <__divmodhi4_neg2>
 390:	3e f4       	brtc	.+14     	; 0x3a0 <__divmodhi4_exit>

00000392 <__divmodhi4_neg1>:
 392:	90 95       	com	r25
 394:	81 95       	neg	r24
 396:	9f 4f       	sbci	r25, 0xFF	; 255
 398:	08 95       	ret

0000039a <__divmodhi4_neg2>:
 39a:	70 95       	com	r23
 39c:	61 95       	neg	r22
 39e:	7f 4f       	sbci	r23, 0xFF	; 255

000003a0 <__divmodhi4_exit>:
 3a0:	08 95       	ret

000003a2 <__udivmodhi4>:
 3a2:	aa 1b       	sub	r26, r26
 3a4:	bb 1b       	sub	r27, r27
 3a6:	51 e1       	ldi	r21, 0x11	; 17
 3a8:	07 c0       	rjmp	.+14     	; 0x3b8 <__udivmodhi4_ep>

000003aa <__udivmodhi4_loop>:
 3aa:	aa 1f       	adc	r26, r26
 3ac:	bb 1f       	adc	r27, r27
 3ae:	a6 17       	cp	r26, r22
 3b0:	b7 07       	cpc	r27, r23
 3b2:	10 f0       	brcs	.+4      	; 0x3b8 <__udivmodhi4_ep>
 3b4:	a6 1b       	sub	r26, r22
 3b6:	b7 0b       	sbc	r27, r23

000003b8 <__udivmodhi4_ep>:
 3b8:	88 1f       	adc	r24, r24
 3ba:	99 1f       	adc	r25, r25
 3bc:	5a 95       	dec	r21
 3be:	a9 f7       	brne	.-22     	; 0x3aa <__udivmodhi4_loop>
 3c0:	80 95       	com	r24
 3c2:	90 95       	com	r25
 3c4:	bc 01       	movw	r22, r24
 3c6:	cd 01       	movw	r24, r26
 3c8:	08 95       	ret

000003ca <_exit>:
 3ca:	f8 94       	cli

000003cc <__stop_program>:
 3cc:	ff cf       	rjmp	.-2      	; 0x3cc <__stop_program>
